target datalayout = "e-m:e-p270:32:32-p271:32:32-p272:64:64-i64:64-i128:128-f80:128-n8:16:32:64-S128"
target triple = "x86_64-pc-linux-gnu"

%struct.mbedtls_pk_context = type { ptr, ptr }
%struct.mbedtls_rsa_alt_context = type { ptr, ptr, ptr, ptr }

; Function Attrs: nounwind uwtable
define internal i32 @rsa_verify_wrap(ptr noundef %0, i32 noundef %1, ptr noundef %2, i64 noundef %3, ptr noundef %4, i64 noundef %5) #0 {
  %7 = alloca i32, align 4
  %8 = alloca ptr, align 8
  %9 = alloca i32, align 4
  %10 = alloca ptr, align 8
  %11 = alloca i64, align 8
  %12 = alloca ptr, align 8
  %13 = alloca i64, align 8
  %14 = alloca i32, align 4
  %15 = alloca ptr, align 8
  %16 = alloca i64, align 8
  %17 = alloca i32, align 4
  store ptr %0, ptr %8, align 8, !tbaa !3
  store i32 %1, ptr %9, align 4, !tbaa !13
  store ptr %2, ptr %10, align 8, !tbaa !15
  store i64 %3, ptr %11, align 8, !tbaa !17
  store ptr %4, ptr %12, align 8, !tbaa !15
  store i64 %5, ptr %13, align 8, !tbaa !17
  call void @llvm.lifetime.start.p0(i64 4, ptr %14) #6
  store i32 -110, ptr %14, align 4, !tbaa !13
  call void @llvm.lifetime.start.p0(i64 8, ptr %15) #6
  %18 = load ptr, ptr %8, align 8, !tbaa !3
  %19 = getelementptr inbounds nuw %struct.mbedtls_pk_context, ptr %18, i32 0, i32 1
  %20 = load ptr, ptr %19, align 8, !tbaa !8
  store ptr %20, ptr %15, align 8, !tbaa !11
  call void @llvm.lifetime.start.p0(i64 8, ptr %16) #6
  %21 = load ptr, ptr %15, align 8, !tbaa !11
  %22 = call i64 @mbedtls_rsa_get_len(ptr noundef %21)
  store i64 %22, ptr %16, align 8, !tbaa !17
  %23 = load i32, ptr %9, align 4, !tbaa !13
  %24 = icmp eq i32 %23, 0
  br i1 %24, label %25, label %29

25:                                               ; preds = %6
  %26 = load i64, ptr %11, align 8, !tbaa !17
  %27 = icmp ult i64 4294967295, %26
  br i1 %27, label %28, label %29

28:                                               ; preds = %25
  store i32 -16000, ptr %7, align 4
  store i32 1, ptr %17, align 4
  br label %51

29:                                               ; preds = %25, %6
  %30 = load i64, ptr %13, align 8, !tbaa !17
  %31 = load i64, ptr %16, align 8, !tbaa !17
  %32 = icmp ult i64 %30, %31
  br i1 %32, label %33, label %34

33:                                               ; preds = %29
  store i32 -17280, ptr %7, align 4
  store i32 1, ptr %17, align 4
  br label %51

34:                                               ; preds = %29
  %35 = load ptr, ptr %15, align 8, !tbaa !11
  %36 = load i32, ptr %9, align 4, !tbaa !13
  %37 = load i64, ptr %11, align 8, !tbaa !17
  %38 = trunc i64 %37 to i32
  %39 = load ptr, ptr %10, align 8, !tbaa !15
  %40 = load ptr, ptr %12, align 8, !tbaa !15
  %41 = call i32 @mbedtls_rsa_pkcs1_verify(ptr noundef %35, i32 noundef %36, i32 noundef %38, ptr noundef %39, ptr noundef %40)
  store i32 %41, ptr %14, align 4, !tbaa !13
  %42 = icmp ne i32 %41, 0
  br i1 %42, label %43, label %45

43:                                               ; preds = %34
  %44 = load i32, ptr %14, align 4, !tbaa !13
  store i32 %44, ptr %7, align 4
  store i32 1, ptr %17, align 4
  br label %51

45:                                               ; preds = %34
  %46 = load i64, ptr %13, align 8, !tbaa !17
  %47 = load i64, ptr %16, align 8, !tbaa !17
  %48 = icmp ugt i64 %46, %47
  br i1 %48, label %49, label %50

49:                                               ; preds = %45
  store i32 -14592, ptr %7, align 4
  store i32 1, ptr %17, align 4
  br label %51

50:                                               ; preds = %45
  store i32 0, ptr %7, align 4
  store i32 1, ptr %17, align 4
  br label %51

51:                                               ; preds = %50, %49, %43, %33, %28
  call void @llvm.lifetime.end.p0(i64 8, ptr %16) #6
  call void @llvm.lifetime.end.p0(i64 8, ptr %15) #6
  call void @llvm.lifetime.end.p0(i64 4, ptr %14) #6
  %52 = load i32, ptr %7, align 4
  ret i32 %52
}

; Function Attrs: nounwind uwtable
define internal i32 @rsa_alt_sign_wrap(ptr noundef %0, i32 noundef %1, ptr noundef %2, i64 noundef %3, ptr noundef %4, i64 noundef %5, ptr noundef %6, ptr noundef %7, ptr noundef %8) #0 {
  %10 = alloca i32, align 4
  %11 = alloca ptr, align 8
  %12 = alloca i32, align 4
  %13 = alloca ptr, align 8
  %14 = alloca i64, align 8
  %15 = alloca ptr, align 8
  %16 = alloca i64, align 8
  %17 = alloca ptr, align 8
  %18 = alloca ptr, align 8
  %19 = alloca ptr, align 8
  %20 = alloca ptr, align 8
  %21 = alloca i32, align 4
  store ptr %0, ptr %11, align 8, !tbaa !3
  store i32 %1, ptr %12, align 4, !tbaa !13
  store ptr %2, ptr %13, align 8, !tbaa !15
  store i64 %3, ptr %14, align 8, !tbaa !17
  store ptr %4, ptr %15, align 8, !tbaa !15
  store i64 %5, ptr %16, align 8, !tbaa !17
  store ptr %6, ptr %17, align 8, !tbaa !19
  store ptr %7, ptr %18, align 8, !tbaa !21
  store ptr %8, ptr %19, align 8, !tbaa !21
  call void @llvm.lifetime.start.p0(i64 8, ptr %20) #6
  %22 = load ptr, ptr %11, align 8, !tbaa !3
  %23 = getelementptr inbounds nuw %struct.mbedtls_pk_context, ptr %22, i32 0, i32 1
  %24 = load ptr, ptr %23, align 8, !tbaa !8
  store ptr %24, ptr %20, align 8, !tbaa !21
  %25 = load i64, ptr %14, align 8, !tbaa !17
  %26 = icmp ult i64 4294967295, %25
  br i1 %26, label %27, label %28

27:                                               ; preds = %9
  store i32 -16000, ptr %10, align 4
  store i32 1, ptr %21, align 4
  br label %62

28:                                               ; preds = %9
  %29 = load ptr, ptr %20, align 8, !tbaa !21
  %30 = getelementptr inbounds nuw %struct.mbedtls_rsa_alt_context, ptr %29, i32 0, i32 3
  %31 = load ptr, ptr %30, align 8, !tbaa !37
  %32 = load ptr, ptr %20, align 8, !tbaa !21
  %33 = getelementptr inbounds nuw %struct.mbedtls_rsa_alt_context, ptr %32, i32 0, i32 0
  %34 = load ptr, ptr %33, align 8, !tbaa !39
  %35 = call i64 %31(ptr noundef %34)
  %36 = load ptr, ptr %17, align 8, !tbaa !19
  store i64 %35, ptr %36, align 8, !tbaa !17
  %37 = load ptr, ptr %17, align 8, !tbaa !19
  %38 = load i64, ptr %37, align 8, !tbaa !17
  %39 = icmp ugt i64 %38, 1024
  br i1 %39, label %40, label %41

40:                                               ; preds = %28
  store i32 -16000, ptr %10, align 4
  store i32 1, ptr %21, align 4
  br label %62

41:                                               ; preds = %28
  %42 = load ptr, ptr %17, align 8, !tbaa !19
  %43 = load i64, ptr %42, align 8, !tbaa !17
  %44 = load i64, ptr %16, align 8, !tbaa !17
  %45 = icmp ugt i64 %43, %44
  br i1 %45, label %46, label %47

46:                                               ; preds = %41
  store i32 -14464, ptr %10, align 4
  store i32 1, ptr %21, align 4
  br label %62

47:                                               ; preds = %41
  %48 = load ptr, ptr %20, align 8, !tbaa !21
  %49 = getelementptr inbounds nuw %struct.mbedtls_rsa_alt_context, ptr %48, i32 0, i32 2
  %50 = load ptr, ptr %49, align 8, !tbaa !40
  %51 = load ptr, ptr %20, align 8, !tbaa !21
  %52 = getelementptr inbounds nuw %struct.mbedtls_rsa_alt_context, ptr %51, i32 0, i32 0
  %53 = load ptr, ptr %52, align 8, !tbaa !39
  %54 = load ptr, ptr %18, align 8, !tbaa !21
  %55 = load ptr, ptr %19, align 8, !tbaa !21
  %56 = load i32, ptr %12, align 4, !tbaa !13
  %57 = load i64, ptr %14, align 8, !tbaa !17
  %58 = trunc i64 %57 to i32
  %59 = load ptr, ptr %13, align 8, !tbaa !15
  %60 = load ptr, ptr %15, align 8, !tbaa !15
  %61 = call i32 %50(ptr noundef %53, ptr noundef %54, ptr noundef %55, i32 noundef %56, i32 noundef %58, ptr noundef %59, ptr noundef %60)
  store i32 %61, ptr %10, align 4
  store i32 1, ptr %21, align 4
  br label %62

62:                                               ; preds = %47, %46, %40, %27
  call void @llvm.lifetime.end.p0(i64 8, ptr %20) #6
  %63 = load i32, ptr %10, align 4
  ret i32 %63
}

; Function Attrs: nounwind uwtable
define internal i64 @rsa_get_bitlen(ptr noundef %0) #0 {
  %2 = alloca ptr, align 8
  %3 = alloca ptr, align 8
  store ptr %0, ptr %2, align 8, !tbaa !3
  call void @llvm.lifetime.start.p0(i64 8, ptr %3) #6
  %4 = load ptr, ptr %2, align 8, !tbaa !3
  %5 = getelementptr inbounds nuw %struct.mbedtls_pk_context, ptr %4, i32 0, i32 1
  %6 = load ptr, ptr %5, align 8, !tbaa !8
  store ptr %6, ptr %3, align 8, !tbaa !11
  %7 = load ptr, ptr %3, align 8, !tbaa !11
  %8 = call i64 @mbedtls_rsa_get_bitlen(ptr noundef %7)
  call void @llvm.lifetime.end.p0(i64 8, ptr %3) #6
  ret i64 %8
}

; Function Attrs: nounwind uwtable
define internal i64 @rsa_alt_get_bitlen(ptr noundef %0) #0 {
  %2 = alloca ptr, align 8
  %3 = alloca ptr, align 8
  store ptr %0, ptr %2, align 8, !tbaa !3
  call void @llvm.lifetime.start.p0(i64 8, ptr %3) #6
  %4 = load ptr, ptr %2, align 8, !tbaa !3
  %5 = getelementptr inbounds nuw %struct.mbedtls_pk_context, ptr %4, i32 0, i32 1
  %6 = load ptr, ptr %5, align 8, !tbaa !8
  store ptr %6, ptr %3, align 8, !tbaa !21
  %7 = load ptr, ptr %3, align 8, !tbaa !21
  %8 = getelementptr inbounds nuw %struct.mbedtls_rsa_alt_context, ptr %7, i32 0, i32 3
  %9 = load ptr, ptr %8, align 8, !tbaa !37
  %10 = load ptr, ptr %3, align 8, !tbaa !21
  %11 = getelementptr inbounds nuw %struct.mbedtls_rsa_alt_context, ptr %10, i32 0, i32 0
  %12 = load ptr, ptr %11, align 8, !tbaa !39
  %13 = call i64 %9(ptr noundef %12)
  %14 = mul i64 8, %13
  call void @llvm.lifetime.end.p0(i64 8, ptr %3) #6
  ret i64 %14
}

; Function Attrs: nounwind uwtable
define internal i32 @rsa_alt_check_pair(ptr noundef %0, ptr noundef %1, ptr noundef %2, ptr noundef %3) #0 {
  %5 = alloca i32, align 4
  %6 = alloca ptr, align 8
  %7 = alloca ptr, align 8
  %8 = alloca ptr, align 8
  %9 = alloca ptr, align 8
  %10 = alloca [1024 x i8], align 16
  %11 = alloca [32 x i8], align 16
  %12 = alloca i64, align 8
  %13 = alloca i32, align 4
  %14 = alloca i32, align 4
  store ptr %0, ptr %6, align 8, !tbaa !3
  store ptr %1, ptr %7, align 8, !tbaa !3
  store ptr %2, ptr %8, align 8, !tbaa !21
  store ptr %3, ptr %9, align 8, !tbaa !21
  call void @llvm.lifetime.start.p0(i64 1024, ptr %10) #6
  call void @llvm.lifetime.start.p0(i64 32, ptr %11) #6
  call void @llvm.lifetime.start.p0(i64 8, ptr %12) #6
  store i64 0, ptr %12, align 8, !tbaa !17
  call void @llvm.lifetime.start.p0(i64 4, ptr %13) #6
  store i32 -110, ptr %13, align 4, !tbaa !13
  %15 = load ptr, ptr %7, align 8, !tbaa !3
  %16 = call i64 @rsa_alt_get_bitlen(ptr noundef %15)
  %17 = load ptr, ptr %6, align 8, !tbaa !3
  %18 = call i64 @rsa_get_bitlen(ptr noundef %17)
  %19 = icmp ne i64 %16, %18
  br i1 %19, label %20, label %21

20:                                               ; preds = %4
  store i32 -16896, ptr %5, align 4
  store i32 1, ptr %14, align 4
  br label %41

21:                                               ; preds = %4
  %22 = getelementptr inbounds [32 x i8], ptr %11, i64 0, i64 0
  call void @llvm.memset.p0.i64(ptr align 16 %22, i8 42, i64 32, i1 false)
  %23 = load ptr, ptr %7, align 8, !tbaa !3
  %24 = getelementptr inbounds [32 x i8], ptr %11, i64 0, i64 0
  %25 = getelementptr inbounds [1024 x i8], ptr %10, i64 0, i64 0
  %26 = load ptr, ptr %8, align 8, !tbaa !21
  %27 = load ptr, ptr %9, align 8, !tbaa !21
  %28 = call i32 @rsa_alt_sign_wrap(ptr noundef %23, i32 noundef 0, ptr noundef %24, i64 noundef 32, ptr noundef %25, i64 noundef 1024, ptr noundef %12, ptr noundef %26, ptr noundef %27)
  store i32 %28, ptr %13, align 4, !tbaa !13
  %29 = icmp ne i32 %28, 0
  br i1 %29, label %30, label %32

30:                                               ; preds = %21
  %31 = load i32, ptr %13, align 4, !tbaa !13
  store i32 %31, ptr %5, align 4
  store i32 1, ptr %14, align 4
  br label %41

32:                                               ; preds = %21
  %33 = load ptr, ptr %6, align 8, !tbaa !3
  %34 = getelementptr inbounds [32 x i8], ptr %11, i64 0, i64 0
  %35 = getelementptr inbounds [1024 x i8], ptr %10, i64 0, i64 0
  %36 = load i64, ptr %12, align 8, !tbaa !17
  %37 = call i32 @rsa_verify_wrap(ptr noundef %33, i32 noundef 0, ptr noundef %34, i64 noundef 32, ptr noundef %35, i64 noundef %36)
  %38 = icmp ne i32 %37, 0
  br i1 %38, label %39, label %40

39:                                               ; preds = %32
  store i32 -16896, ptr %5, align 4
  store i32 1, ptr %14, align 4
  br label %41

40:                                               ; preds = %32
  store i32 0, ptr %5, align 4
  store i32 1, ptr %14, align 4
  br label %41

41:                                               ; preds = %40, %39, %30, %20
  call void @llvm.lifetime.end.p0(i64 4, ptr %13) #6
  call void @llvm.lifetime.end.p0(i64 8, ptr %12) #6
  call void @llvm.lifetime.end.p0(i64 32, ptr %11) #6
  call void @llvm.lifetime.end.p0(i64 1024, ptr %10) #6
  %42 = load i32, ptr %5, align 4
  ret i32 %42
}