; Function Attrs: nounwind uwtable
define internal i32 @rsa_alt_check_pair(ptr noundef readonly captures(none) %0, ptr noundef readonly captures(none) %1, ptr noundef %2, ptr noundef %3) #0 {
  %5 = alloca [1024 x i8], align 16
  %6 = alloca [32 x i8], align 16
  call void @llvm.lifetime.start.p0(i64 1024, ptr nonnull %5) #10
  call void @llvm.lifetime.start.p0(i64 32, ptr nonnull %6) #10
  %7 = getelementptr inbounds nuw i8, ptr %1, i64 8
  %8 = load ptr, ptr %7, align 8, !tbaa !3
  %9 = getelementptr inbounds nuw i8, ptr %8, i64 24
  %10 = load ptr, ptr %9, align 8, !tbaa !25
  %11 = load ptr, ptr %8, align 8, !tbaa !27
  %12 = tail call i64 %10(ptr noundef %11) #10
  %13 = shl i64 %12, 3
  %14 = getelementptr inbounds nuw i8, ptr %0, i64 8
  %15 = load ptr, ptr %14, align 8, !tbaa !3
  %16 = tail call i64 @mbedtls_rsa_get_bitlen(ptr noundef %15) #10
  %.not = icmp eq i64 %13, %16
  br i1 %.not, label %17, label %rsa_verify_wrap.exit

17:                                               ; preds = %4
  call void @llvm.memset.p0.i64(ptr noundef nonnull align 16 dereferenceable(32) %6, i8 42, i64 32, i1 false)
  %18 = load ptr, ptr %7, align 8, !tbaa !3
  %19 = getelementptr inbounds nuw i8, ptr %18, i64 24
  %20 = load ptr, ptr %19, align 8, !tbaa !25
  %21 = load ptr, ptr %18, align 8, !tbaa !27
  %22 = tail call i64 %20(ptr noundef %21) #10
  %23 = icmp ugt i64 %22, 1024
  br i1 %23, label %rsa_verify_wrap.exit, label %rsa_alt_sign_wrap.exit

rsa_alt_sign_wrap.exit:                           ; preds = %17
  %24 = getelementptr inbounds nuw i8, ptr %18, i64 16
  %25 = load ptr, ptr %24, align 8, !tbaa !28
  %26 = load ptr, ptr %18, align 8, !tbaa !27
  %27 = call i32 %25(ptr noundef %26, ptr noundef %2, ptr noundef %3, i32 noundef 0, i32 noundef 32, ptr noundef nonnull %6, ptr noundef nonnull %5) #10
  %.not8 = icmp eq i32 %27, 0
  br i1 %.not8, label %28, label %rsa_verify_wrap.exit

28:                                               ; preds = %rsa_alt_sign_wrap.exit
  %29 = load ptr, ptr %14, align 8, !tbaa !3
  %30 = call i64 @mbedtls_rsa_get_len(ptr noundef %29) #10
  %31 = icmp ult i64 %22, %30
  br i1 %31, label %rsa_verify_wrap.exit.thread, label %32

32:                                               ; preds = %28
  %33 = call i32 @mbedtls_rsa_pkcs1_verify(ptr noundef %29, i32 noundef 0, i32 noundef 32, ptr noundef nonnull %6, ptr noundef nonnull %5) #10
  %.not.i = icmp ne i32 %33, 0
  %34 = icmp samesign ugt i64 %22, %30
  %or.cond = select i1 %.not.i, i1 true, i1 %34
  br i1 %or.cond, label %rsa_verify_wrap.exit.thread, label %rsa_verify_wrap.exit

rsa_verify_wrap.exit.thread:                      ; preds = %28, %32
  br label %rsa_verify_wrap.exit

rsa_verify_wrap.exit:                             ; preds = %32, %17, %rsa_verify_wrap.exit.thread, %rsa_alt_sign_wrap.exit, %4
  %.0 = phi i32 [ -16896, %4 ], [ %27, %rsa_alt_sign_wrap.exit ], [ -16896, %rsa_verify_wrap.exit.thread ], [ -16000, %17 ], [ 0, %32 ]
  call void @llvm.lifetime.end.p0(i64 32, ptr nonnull %6) #10
  call void @llvm.lifetime.end.p0(i64 1024, ptr nonnull %5) #10
  ret i32 %.0
}